; Function Attrs: mustprogress uwtable
define hidden void @_ZN4cvc58internal6theory7strings11SolverState18setPendingConflictERNS2_9InferInfoE(ptr noundef nonnull align 8 dereferenceable(560) %0, ptr noundef nonnull align 8 dereferenceable(200) %1) local_unnamed_addr #3 align 2 {
  %3 = getelementptr inbounds nuw i8, ptr %0, i64 256
  %4 = getelementptr inbounds nuw i8, ptr %0, i64 296
  %5 = load i8, ptr %4, align 8, !tbaa !54, !range !60, !noundef !61
  %6 = trunc nuw i8 %5 to i1
  br i1 %6, label %19, label %7

7:                                                ; preds = %2
  %8 = getelementptr inbounds nuw i8, ptr %0, i64 304
  %9 = tail call noundef nonnull align 8 dereferenceable(200) ptr @_ZN4cvc58internal6theory7strings9InferInfoaSERKS3_(ptr noundef nonnull align 8 dereferenceable(200) %8, ptr noundef nonnull align 8 dereferenceable(200) %1)
  %10 = getelementptr inbounds nuw i8, ptr %0, i64 264
  %11 = load ptr, ptr %10, align 8, !tbaa !31
  %12 = load ptr, ptr %11, align 8, !tbaa !32
  %13 = getelementptr inbounds nuw i8, ptr %12, i64 16
  %14 = load ptr, ptr %13, align 8, !tbaa !41
  %15 = getelementptr inbounds i8, ptr %14, i64 -8
  %16 = load ptr, ptr %15, align 8, !tbaa !43
  %17 = icmp eq ptr %11, %16
  br i1 %17, label %_ZN4cvc57context3CDOIbE3setERKb.exit, label %18

18:                                               ; preds = %7
  tail call void @_ZN4cvc57context10ContextObj6updateEv(ptr noundef nonnull align 8 dereferenceable(41) %3)
  br label %_ZN4cvc57context3CDOIbE3setERKb.exit

_ZN4cvc57context3CDOIbE3setERKb.exit:             ; preds = %7, %18
  store i8 1, ptr %4, align 8, !tbaa !29
  br label %19

19:                                               ; preds = %_ZN4cvc57context3CDOIbE3setERKb.exit, %2
  ret void
}